target datalayout = "e-m:e-p270:32:32-p271:32:32-p272:64:64-i64:64-i128:128-f80:128-n8:16:32:64-S128"
target triple = "x86_64-pc-linux-gnu"

; Function Attrs: nounwind uwtable
define i32 @Prs_CreateGetMemSize(ptr noundef %0) #0 {
  %2 = alloca ptr, align 8
  %3 = alloca ptr, align 8
  %4 = alloca ptr, align 8
  %5 = alloca i32, align 4
  %6 = alloca i32, align 4
  store ptr %0, ptr %2, align 8
  %7 = load ptr, ptr %2, align 8
  %8 = call ptr @strchr(ptr noundef %7, i32 noundef 95) #11
  store ptr %8, ptr %3, align 8
  %9 = load ptr, ptr %3, align 8
  %10 = getelementptr inbounds i8, ptr %9, i64 1
  %11 = call ptr @strchr(ptr noundef %10, i32 noundef 95) #11
  store ptr %11, ptr %4, align 8
  %12 = load ptr, ptr %3, align 8
  %13 = getelementptr inbounds i8, ptr %12, i64 1
  %14 = call i32 @atoi(ptr noundef %13) #11
  store i32 %14, ptr %5, align 4
  %15 = load ptr, ptr %4, align 8
  %16 = getelementptr inbounds i8, ptr %15, i64 1
  %17 = call i32 @atoi(ptr noundef %16) #11
  store i32 %17, ptr %6, align 4
  %18 = load i32, ptr %5, align 4
  %19 = shl i32 1, %18
  %20 = load i32, ptr %6, align 4
  %21 = mul nsw i32 %19, %20
  ret i32 %21
}