; Function Attrs: mustprogress nofree nounwind willreturn memory(read) uwtable
define i32 @Prs_CreateGetMemSize(ptr noundef readonly %0) local_unnamed_addr #5 {
  %2 = tail call ptr @strchr(ptr noundef nonnull dereferenceable(1) %0, i32 noundef 95) #31
  %3 = getelementptr inbounds nuw i8, ptr %2, i64 1
  %4 = tail call ptr @strchr(ptr noundef nonnull dereferenceable(1) %3, i32 noundef 95) #31
  %5 = tail call i32 @atoi(ptr noundef nonnull %3) #31
  %6 = getelementptr inbounds nuw i8, ptr %4, i64 1
  %7 = tail call i32 @atoi(ptr noundef nonnull %6) #31
  %8 = shl i32 %7, %5
  ret i32 %8
}